target datalayout = "e-m:e-p270:32:32-p271:32:32-p272:64:64-i64:64-i128:128-f80:128-n8:16:32:64-S128"
target triple = "x86_64-pc-linux-gnu"

%"class.cv::GCall::Priv" = type { %"class.std::vector", %"struct.cv::GKernel", %"class.cv::GNode", %"class.cv::util::any" }
%"class.std::vector" = type { %"struct.std::_Vector_base" }
%"struct.std::_Vector_base" = type { %"struct.std::_Vector_base<cv::GArg, std::allocator<cv::GArg>>::_Vector_impl" }
%"struct.std::_Vector_base<cv::GArg, std::allocator<cv::GArg>>::_Vector_impl" = type { %"struct.std::_Vector_base<cv::GArg, std::allocator<cv::GArg>>::_Vector_impl_data" }
%"struct.std::_Vector_base<cv::GArg, std::allocator<cv::GArg>>::_Vector_impl_data" = type { ptr, ptr, ptr }
%"struct.cv::GKernel" = type { %"class.std::__cxx11::basic_string", %"class.std::__cxx11::basic_string", %"class.std::function", %"class.std::vector.3", %"class.std::vector.8", %"class.std::vector.13", %"class.std::vector.8" }
%"class.std::__cxx11::basic_string" = type { %"struct.std::__cxx11::basic_string<char>::_Alloc_hider", i64, %union.anon }
%"struct.std::__cxx11::basic_string<char>::_Alloc_hider" = type { ptr }
%union.anon = type { i64, [8 x i8] }
%"class.std::function" = type { %"class.std::_Function_base", ptr }
%"class.std::_Function_base" = type { %"union.std::_Any_data", ptr }
%"union.std::_Any_data" = type { %"union.std::_Nocopy_types" }
%"union.std::_Nocopy_types" = type { { i64, i64 } }
%"class.std::vector.3" = type { %"struct.std::_Vector_base.4" }
%"struct.std::_Vector_base.4" = type { %"struct.std::_Vector_base<cv::GShape, std::allocator<cv::GShape>>::_Vector_impl" }
%"struct.std::_Vector_base<cv::GShape, std::allocator<cv::GShape>>::_Vector_impl" = type { %"struct.std::_Vector_base<cv::GShape, std::allocator<cv::GShape>>::_Vector_impl_data" }
%"struct.std::_Vector_base<cv::GShape, std::allocator<cv::GShape>>::_Vector_impl_data" = type { ptr, ptr, ptr }
%"class.std::vector.13" = type { %"struct.std::_Vector_base.14" }
%"struct.std::_Vector_base.14" = type { %"struct.std::_Vector_base<cv::util::variant<cv::util::monostate, std::function<void (cv::detail::VectorRef &)>, std::function<void (cv::detail::OpaqueRef &)>>, std::allocator<cv::util::variant<cv::util::monostate, std::function<void (cv::detail::VectorRef &)>, std::function<void (cv::detail::OpaqueRef &)>>>>::_Vector_impl" }
%"struct.std::_Vector_base<cv::util::variant<cv::util::monostate, std::function<void (cv::detail::VectorRef &)>, std::function<void (cv::detail::OpaqueRef &)>>, std::allocator<cv::util::variant<cv::util::monostate, std::function<void (cv::detail::VectorRef &)>, std::function<void (cv::detail::OpaqueRef &)>>>>::_Vector_impl" = type { %"struct.std::_Vector_base<cv::util::variant<cv::util::monostate, std::function<void (cv::detail::VectorRef &)>, std::function<void (cv::detail::OpaqueRef &)>>, std::allocator<cv::util::variant<cv::util::monostate, std::function<void (cv::detail::VectorRef &)>, std::function<void (cv::detail::OpaqueRef &)>>>>::_Vector_impl_data" }
%"struct.std::_Vector_base<cv::util::variant<cv::util::monostate, std::function<void (cv::detail::VectorRef &)>, std::function<void (cv::detail::OpaqueRef &)>>, std::allocator<cv::util::variant<cv::util::monostate, std::function<void (cv::detail::VectorRef &)>, std::function<void (cv::detail::OpaqueRef &)>>>>::_Vector_impl_data" = type { ptr, ptr, ptr }
%"class.std::vector.8" = type { %"struct.std::_Vector_base.9" }
%"struct.std::_Vector_base.9" = type { %"struct.std::_Vector_base<cv::detail::OpaqueKind, std::allocator<cv::detail::OpaqueKind>>::_Vector_impl" }
%"struct.std::_Vector_base<cv::detail::OpaqueKind, std::allocator<cv::detail::OpaqueKind>>::_Vector_impl" = type { %"struct.std::_Vector_base<cv::detail::OpaqueKind, std::allocator<cv::detail::OpaqueKind>>::_Vector_impl_data" }
%"struct.std::_Vector_base<cv::detail::OpaqueKind, std::allocator<cv::detail::OpaqueKind>>::_Vector_impl_data" = type { ptr, ptr, ptr }
%"class.cv::GNode" = type { %"class.std::shared_ptr" }
%"class.std::shared_ptr" = type { %"class.std::__shared_ptr" }
%"class.std::__shared_ptr" = type { ptr, %"class.std::__shared_count" }
%"class.std::__shared_count" = type { ptr }
%"class.cv::util::any" = type { %"class.std::unique_ptr" }
%"class.std::unique_ptr" = type { %"struct.std::__uniq_ptr_data" }
%"struct.std::__uniq_ptr_data" = type { %"class.std::__uniq_ptr_impl" }
%"class.std::__uniq_ptr_impl" = type { %"class.std::tuple" }
%"class.std::tuple" = type { %"struct.std::_Tuple_impl" }
%"struct.std::_Tuple_impl" = type { %"struct.std::_Head_base.19" }
%"struct.std::_Head_base.19" = type { ptr }

; Function Attrs: mustprogress nounwind uwtable
define linkonce_odr hidden void @_ZNSt10_Head_baseILm1ESt14default_deleteIN2cv4util3any6holderEELb1EEC2Ev(ptr noundef nonnull align 1 dereferenceable(1) %0) unnamed_addr #5 comdat align 2 {
  %2 = alloca ptr, align 8
  store ptr %0, ptr %2, align 8
  ret void
}

; Function Attrs: mustprogress nounwind uwtable
define linkonce_odr hidden void @_ZNSt10_Head_baseILm0EPN2cv4util3any6holderELb0EEC2Ev(ptr noundef nonnull align 8 dereferenceable(8) %0) unnamed_addr #5 comdat align 2 {
  %2 = alloca ptr, align 8
  store ptr %0, ptr %2, align 8
  %3 = load ptr, ptr %2, align 8
  %4 = getelementptr inbounds %"struct.std::_Head_base.19", ptr %3, i32 0, i32 0
  store ptr null, ptr %4, align 8
  ret void
}

; Function Attrs: mustprogress uwtable
define linkonce_odr hidden void @_ZNSt11_Tuple_implILm1EJSt14default_deleteIN2cv4util3any6holderEEEEC2Ev(ptr noundef nonnull align 1 dereferenceable(1) %0) unnamed_addr #4 comdat align 2 {
  %2 = alloca ptr, align 8
  store ptr %0, ptr %2, align 8
  %3 = load ptr, ptr %2, align 8
  call void @_ZNSt10_Head_baseILm1ESt14default_deleteIN2cv4util3any6holderEELb1EEC2Ev(ptr noundef nonnull align 1 dereferenceable(1) %3)
  ret void
}

; Function Attrs: noreturn nounwind uwtable
define linkonce_odr hidden void @__clang_call_terminate(ptr noundef %0) #8 comdat {
  %2 = call ptr @__cxa_begin_catch(ptr %0) #3
  call void @_ZSt9terminatev() #13
  unreachable
}

; Function Attrs: mustprogress uwtable
define linkonce_odr hidden void @_ZNSt11_Tuple_implILm0EJPN2cv4util3any6holderESt14default_deleteIS3_EEEC2Ev(ptr noundef nonnull align 8 dereferenceable(8) %0) unnamed_addr #4 comdat align 2 {
  %2 = alloca ptr, align 8
  store ptr %0, ptr %2, align 8
  %3 = load ptr, ptr %2, align 8
  call void @_ZNSt11_Tuple_implILm1EJSt14default_deleteIN2cv4util3any6holderEEEEC2Ev(ptr noundef nonnull align 1 dereferenceable(1) %3)
  call void @_ZNSt10_Head_baseILm0EPN2cv4util3any6holderELb0EEC2Ev(ptr noundef nonnull align 8 dereferenceable(8) %3)
  ret void
}

; Function Attrs: mustprogress nounwind uwtable
define linkonce_odr hidden void @_ZNSt5tupleIJPN2cv4util3any6holderESt14default_deleteIS3_EEEC2ILb1ETnNSt9enable_ifIXclsr17_TupleConstraintsIXT_ES4_S6_EE37__is_implicitly_default_constructibleEEbE4typeELb1EEEv(ptr noundef nonnull align 8 dereferenceable(8) %0) unnamed_addr #5 comdat align 2 personality ptr @__gxx_personality_v0 {
  %2 = alloca ptr, align 8
  store ptr %0, ptr %2, align 8
  %3 = load ptr, ptr %2, align 8
  invoke void @_ZNSt11_Tuple_implILm0EJPN2cv4util3any6holderESt14default_deleteIS3_EEEC2Ev(ptr noundef nonnull align 8 dereferenceable(8) %3)
          to label %4 unwind label %5

4:                                                ; preds = %1
  ret void

5:                                                ; preds = %1
  %6 = landingpad { ptr, i32 }
          catch ptr null
  %7 = extractvalue { ptr, i32 } %6, 0
  call void @__clang_call_terminate(ptr %7) #13
  unreachable
}

; Function Attrs: mustprogress nounwind uwtable
define linkonce_odr hidden void @_ZNSt15__new_allocatorIN2cv4GArgEEC2Ev(ptr noundef nonnull align 1 dereferenceable(1) %0) unnamed_addr #5 comdat align 2 {
  %2 = alloca ptr, align 8
  store ptr %0, ptr %2, align 8
  ret void
}

; Function Attrs: mustprogress nounwind uwtable
define linkonce_odr hidden void @_ZNSt15__uniq_ptr_implIN2cv4util3any6holderESt14default_deleteIS3_EEC2Ev(ptr noundef nonnull align 8 dereferenceable(8) %0) unnamed_addr #5 comdat align 2 {
  %2 = alloca ptr, align 8
  store ptr %0, ptr %2, align 8
  %3 = load ptr, ptr %2, align 8
  %4 = getelementptr inbounds %"class.std::__uniq_ptr_impl", ptr %3, i32 0, i32 0
  call void @_ZNSt5tupleIJPN2cv4util3any6holderESt14default_deleteIS3_EEEC2ILb1ETnNSt9enable_ifIXclsr17_TupleConstraintsIXT_ES4_S6_EE37__is_implicitly_default_constructibleEEbE4typeELb1EEEv(ptr noundef nonnull align 8 dereferenceable(8) %4) #3
  ret void
}

; Function Attrs: mustprogress nounwind uwtable
define linkonce_odr hidden void @_ZNSt12_Vector_baseIN2cv4GArgESaIS1_EE17_Vector_impl_dataC2Ev(ptr noundef nonnull align 8 dereferenceable(24) %0) unnamed_addr #5 comdat align 2 {
  %2 = alloca ptr, align 8
  store ptr %0, ptr %2, align 8
  %3 = load ptr, ptr %2, align 8
  %4 = getelementptr inbounds %"struct.std::_Vector_base<cv::GArg, std::allocator<cv::GArg>>::_Vector_impl_data", ptr %3, i32 0, i32 0
  store ptr null, ptr %4, align 8
  %5 = getelementptr inbounds %"struct.std::_Vector_base<cv::GArg, std::allocator<cv::GArg>>::_Vector_impl_data", ptr %3, i32 0, i32 1
  store ptr null, ptr %5, align 8
  %6 = getelementptr inbounds %"struct.std::_Vector_base<cv::GArg, std::allocator<cv::GArg>>::_Vector_impl_data", ptr %3, i32 0, i32 2
  store ptr null, ptr %6, align 8
  ret void
}

; Function Attrs: mustprogress nounwind uwtable
define linkonce_odr hidden void @_ZNSaIN2cv4GArgEEC2Ev(ptr noundef nonnull align 1 dereferenceable(1) %0) unnamed_addr #5 comdat align 2 {
  %2 = alloca ptr, align 8
  store ptr %0, ptr %2, align 8
  %3 = load ptr, ptr %2, align 8
  call void @_ZNSt15__new_allocatorIN2cv4GArgEEC2Ev(ptr noundef nonnull align 1 dereferenceable(1) %3) #3
  ret void
}

; Function Attrs: mustprogress nounwind uwtable
define linkonce_odr hidden void @_ZNSt15__uniq_ptr_dataIN2cv4util3any6holderESt14default_deleteIS3_ELb1ELb1EEC2Ev(ptr noundef nonnull align 8 dereferenceable(8) %0) unnamed_addr #5 comdat align 2 {
  %2 = alloca ptr, align 8
  store ptr %0, ptr %2, align 8
  %3 = load ptr, ptr %2, align 8
  call void @_ZNSt15__uniq_ptr_implIN2cv4util3any6holderESt14default_deleteIS3_EEC2Ev(ptr noundef nonnull align 8 dereferenceable(8) %3) #3
  ret void
}

; Function Attrs: mustprogress nounwind uwtable
define linkonce_odr hidden void @_ZNSt12_Vector_baseIN2cv4GArgESaIS1_EE12_Vector_implC2Ev(ptr noundef nonnull align 8 dereferenceable(24) %0) unnamed_addr #5 comdat align 2 {
  %2 = alloca ptr, align 8
  store ptr %0, ptr %2, align 8
  %3 = load ptr, ptr %2, align 8
  call void @_ZNSaIN2cv4GArgEEC2Ev(ptr noundef nonnull align 1 dereferenceable(1) %3) #3
  call void @_ZNSt12_Vector_baseIN2cv4GArgESaIS1_EE17_Vector_impl_dataC2Ev(ptr noundef nonnull align 8 dereferenceable(24) %3) #3
  ret void
}

; Function Attrs: mustprogress nounwind uwtable
define linkonce_odr hidden void @_ZNSt10unique_ptrIN2cv4util3any6holderESt14default_deleteIS3_EEC2IS5_vEEv(ptr noundef nonnull align 8 dereferenceable(8) %0) unnamed_addr #5 comdat align 2 {
  %2 = alloca ptr, align 8
  store ptr %0, ptr %2, align 8
  %3 = load ptr, ptr %2, align 8
  %4 = getelementptr inbounds %"class.std::unique_ptr", ptr %3, i32 0, i32 0
  call void @llvm.memset.p0.i64(ptr align 8 %4, i8 0, i64 8, i1 false)
  call void @_ZNSt15__uniq_ptr_dataIN2cv4util3any6holderESt14default_deleteIS3_ELb1ELb1EEC2Ev(ptr noundef nonnull align 8 dereferenceable(8) %4) #3
  ret void
}

; Function Attrs: mustprogress nounwind uwtable
define linkonce_odr hidden void @_ZNSt12_Vector_baseIN2cv4GArgESaIS1_EEC2Ev(ptr noundef nonnull align 8 dereferenceable(24) %0) unnamed_addr #5 comdat align 2 {
  %2 = alloca ptr, align 8
  store ptr %0, ptr %2, align 8
  %3 = load ptr, ptr %2, align 8
  %4 = getelementptr inbounds %"struct.std::_Vector_base", ptr %3, i32 0, i32 0
  call void @_ZNSt12_Vector_baseIN2cv4GArgESaIS1_EE12_Vector_implC2Ev(ptr noundef nonnull align 8 dereferenceable(24) %4) #3
  ret void
}

; Function Attrs: mustprogress nounwind uwtable
define linkonce_odr hidden void @_ZN2cv4util3anyC2Ev(ptr noundef nonnull align 8 dereferenceable(8) %0) unnamed_addr #5 comdat align 2 {
  %2 = alloca ptr, align 8
  store ptr %0, ptr %2, align 8
  %3 = load ptr, ptr %2, align 8
  %4 = getelementptr inbounds %"class.cv::util::any", ptr %3, i32 0, i32 0
  call void @_ZNSt10unique_ptrIN2cv4util3any6holderESt14default_deleteIS3_EEC2IS5_vEEv(ptr noundef nonnull align 8 dereferenceable(8) %4) #3
  ret void
}

; Function Attrs: mustprogress nounwind uwtable
define linkonce_odr hidden void @_ZNSt6vectorIN2cv4GArgESaIS1_EEC2Ev(ptr noundef nonnull align 8 dereferenceable(24) %0) unnamed_addr #5 comdat align 2 {
  %2 = alloca ptr, align 8
  store ptr %0, ptr %2, align 8
  %3 = load ptr, ptr %2, align 8
  call void @_ZNSt12_Vector_baseIN2cv4GArgESaIS1_EEC2Ev(ptr noundef nonnull align 8 dereferenceable(24) %3) #3
  ret void
}

; Function Attrs: mustprogress uwtable
define void @_ZN2cv5GCall4PrivC2ERKNS_7GKernelE(ptr noundef nonnull align 8 dereferenceable(240) %0, ptr noundef nonnull align 8 dereferenceable(192) %1) unnamed_addr #4 align 2 personality ptr @__gxx_personality_v0 {
  %3 = alloca ptr, align 8
  %4 = alloca ptr, align 8
  %5 = alloca ptr, align 8
  %6 = alloca i32, align 4
  store ptr %0, ptr %3, align 8
  store ptr %1, ptr %4, align 8
  %7 = load ptr, ptr %3, align 8
  %8 = getelementptr inbounds %"class.cv::GCall::Priv", ptr %7, i32 0, i32 0
  call void @_ZNSt6vectorIN2cv4GArgESaIS1_EEC2Ev(ptr noundef nonnull align 8 dereferenceable(24) %8) #3
  %9 = getelementptr inbounds %"class.cv::GCall::Priv", ptr %7, i32 0, i32 1
  %10 = load ptr, ptr %4, align 8
  invoke void @_ZN2cv7GKernelC2ERKS0_(ptr noundef nonnull align 8 dereferenceable(192) %9, ptr noundef nonnull align 8 dereferenceable(192) %10)
          to label %11 unwind label %15

11:                                               ; preds = %2
  %12 = getelementptr inbounds %"class.cv::GCall::Priv", ptr %7, i32 0, i32 2
  invoke void @_ZN2cv5GNodeC1Ev(ptr noundef nonnull align 8 dereferenceable(16) %12)
          to label %13 unwind label %19

13:                                               ; preds = %11
  %14 = getelementptr inbounds %"class.cv::GCall::Priv", ptr %7, i32 0, i32 3
  call void @_ZN2cv4util3anyC2Ev(ptr noundef nonnull align 8 dereferenceable(8) %14) #3
  ret void

15:                                               ; preds = %2
  %16 = landingpad { ptr, i32 }
          cleanup
  %17 = extractvalue { ptr, i32 } %16, 0
  store ptr %17, ptr %5, align 8
  %18 = extractvalue { ptr, i32 } %16, 1
  store i32 %18, ptr %6, align 4
  br label %23

19:                                               ; preds = %11
  %20 = landingpad { ptr, i32 }
          cleanup
  %21 = extractvalue { ptr, i32 } %20, 0
  store ptr %21, ptr %5, align 8
  %22 = extractvalue { ptr, i32 } %20, 1
  store i32 %22, ptr %6, align 4
  call void @_ZN2cv7GKernelD2Ev(ptr noundef nonnull align 8 dereferenceable(192) %9) #3
  br label %23

23:                                               ; preds = %19, %15
  call void @_ZNSt6vectorIN2cv4GArgESaIS1_EED2Ev(ptr noundef nonnull align 8 dereferenceable(24) %8) #3
  br label %24

24:                                               ; preds = %23
  %25 = load ptr, ptr %5, align 8
  %26 = load i32, ptr %6, align 4
  %27 = insertvalue { ptr, i32 } poison, ptr %25, 0
  %28 = insertvalue { ptr, i32 } %27, i32 %26, 1
  resume { ptr, i32 } %28
}