; Function Attrs: mustprogress uwtable
define void @_ZN2cv5GCall4PrivC2ERKNS_7GKernelE(ptr noundef nonnull align 8 dereferenceable(240) %0, ptr noundef nonnull align 8 dereferenceable(192) %1) unnamed_addr #3 align 2 personality ptr @__gxx_personality_v0 {
  tail call void @llvm.memset.p0.i64(ptr noundef nonnull align 8 dereferenceable(24) %0, i8 0, i64 24, i1 false)
  %3 = getelementptr inbounds i8, ptr %0, i64 24
  invoke void @_ZN2cv7GKernelC2ERKS0_(ptr noundef nonnull align 8 dereferenceable(192) %3, ptr noundef nonnull align 8 dereferenceable(192) %1)
          to label %4 unwind label %8

4:                                                ; preds = %2
  %5 = getelementptr inbounds i8, ptr %0, i64 216
  invoke void @_ZN2cv5GNodeC1Ev(ptr noundef nonnull align 8 dereferenceable(16) %5)
          to label %6 unwind label %10

6:                                                ; preds = %4
  %7 = getelementptr inbounds i8, ptr %0, i64 232
  store ptr null, ptr %7, align 8
  ret void

8:                                                ; preds = %2
  %9 = landingpad { ptr, i32 }
          cleanup
  br label %12

10:                                               ; preds = %4
  %11 = landingpad { ptr, i32 }
          cleanup
  tail call void @_ZN2cv7GKernelD2Ev(ptr noundef nonnull align 8 dereferenceable(192) %3) #13
  br label %12

12:                                               ; preds = %10, %8
  %.pn = phi { ptr, i32 } [ %11, %10 ], [ %9, %8 ]
  tail call void @_ZNSt6vectorIN2cv4GArgESaIS1_EED2Ev(ptr noundef nonnull align 8 dereferenceable(24) %0) #13
  resume { ptr, i32 } %.pn
}